target datalayout = "e-m:e-p270:32:32-p271:32:32-p272:64:64-i64:64-i128:128-f80:128-n8:16:32:64-S128"
target triple = "x86_64-unknown-linux-gnu"

%"struct.Imf_3_2::DeepScanLineInputFile::Data" = type <{ %"class.std::mutex", %"class.Imf_3_2::Header", i32, [4 x i8], %"class.Imf_3_2::DeepFrameBuffer", i32, i32, i32, i32, i32, [4 x i8], %"class.std::vector", i8, [3 x i8], i32, %"class.std::vector", %"class.std::vector", %"class.std::vector.11", %"class.std::vector.16", i32, i32, i32, i8, [3 x i8], ptr, i8, i8, [6 x i8], %"class.Imf_3_2::Array2D", %"class.Imf_3_2::Array", %"class.Imf_3_2::Array.21", ptr, i32, i32, i8, [7 x i8], %"class.Imf_3_2::Array.22", ptr, i32, i32, ptr, i8, [7 x i8] }>
%"class.std::mutex" = type { %"class.std::__mutex_base" }
%"class.std::__mutex_base" = type { %union.pthread_mutex_t }
%union.pthread_mutex_t = type { %struct.__pthread_mutex_s }
%struct.__pthread_mutex_s = type { i32, i32, i32, i32, i32, i16, i16, %struct.__pthread_internal_list }
%struct.__pthread_internal_list = type { ptr, ptr }
%"class.Imf_3_2::Header" = type <{ %"class.std::map", i8, [7 x i8] }>
%"class.std::map" = type { %"class.std::_Rb_tree" }
%"class.std::_Rb_tree" = type { %"struct.std::_Rb_tree<Imf_3_2::Name, std::pair<const Imf_3_2::Name, Imf_3_2::Attribute *>, std::_Select1st<std::pair<const Imf_3_2::Name, Imf_3_2::Attribute *>>, std::less<Imf_3_2::Name>>::_Rb_tree_impl" }
%"struct.std::_Rb_tree<Imf_3_2::Name, std::pair<const Imf_3_2::Name, Imf_3_2::Attribute *>, std::_Select1st<std::pair<const Imf_3_2::Name, Imf_3_2::Attribute *>>, std::less<Imf_3_2::Name>>::_Rb_tree_impl" = type { %"struct.std::_Rb_tree_key_compare", %"struct.std::_Rb_tree_header" }
%"struct.std::_Rb_tree_key_compare" = type { %"struct.std::less" }
%"struct.std::less" = type { i8 }
%"struct.std::_Rb_tree_header" = type { %"struct.std::_Rb_tree_node_base", i64 }
%"struct.std::_Rb_tree_node_base" = type { i32, ptr, ptr, ptr }
%"class.Imf_3_2::DeepFrameBuffer" = type { %"class.std::map.3", %"struct.Imf_3_2::Slice" }
%"class.std::map.3" = type { %"class.std::_Rb_tree.4" }
%"class.std::_Rb_tree.4" = type { %"struct.std::_Rb_tree<Imf_3_2::Name, std::pair<const Imf_3_2::Name, Imf_3_2::DeepSlice>, std::_Select1st<std::pair<const Imf_3_2::Name, Imf_3_2::DeepSlice>>, std::less<Imf_3_2::Name>>::_Rb_tree_impl" }
%"struct.std::_Rb_tree<Imf_3_2::Name, std::pair<const Imf_3_2::Name, Imf_3_2::DeepSlice>, std::_Select1st<std::pair<const Imf_3_2::Name, Imf_3_2::DeepSlice>>, std::less<Imf_3_2::Name>>::_Rb_tree_impl" = type { %"struct.std::_Rb_tree_key_compare", %"struct.std::_Rb_tree_header" }
%"struct.Imf_3_2::Slice" = type <{ i32, [4 x i8], ptr, i64, i64, i32, i32, double, i8, i8, [6 x i8] }>
%"class.std::vector" = type { %"struct.std::_Vector_base" }
%"struct.std::_Vector_base" = type { %"struct.std::_Vector_base<unsigned long, std::allocator<unsigned long>>::_Vector_impl" }
%"struct.std::_Vector_base<unsigned long, std::allocator<unsigned long>>::_Vector_impl" = type { %"struct.std::_Vector_base<unsigned long, std::allocator<unsigned long>>::_Vector_impl_data" }
%"struct.std::_Vector_base<unsigned long, std::allocator<unsigned long>>::_Vector_impl_data" = type { ptr, ptr, ptr }
%"class.std::vector.11" = type { %"struct.std::_Vector_base.12" }
%"struct.std::_Vector_base.12" = type { %"struct.std::_Vector_base<Imf_3_2::(anonymous namespace)::InSliceInfo *, std::allocator<Imf_3_2::(anonymous namespace)::InSliceInfo *>>::_Vector_impl" }
%"struct.std::_Vector_base<Imf_3_2::(anonymous namespace)::InSliceInfo *, std::allocator<Imf_3_2::(anonymous namespace)::InSliceInfo *>>::_Vector_impl" = type { %"struct.std::_Vector_base<Imf_3_2::(anonymous namespace)::InSliceInfo *, std::allocator<Imf_3_2::(anonymous namespace)::InSliceInfo *>>::_Vector_impl_data" }
%"struct.std::_Vector_base<Imf_3_2::(anonymous namespace)::InSliceInfo *, std::allocator<Imf_3_2::(anonymous namespace)::InSliceInfo *>>::_Vector_impl_data" = type { ptr, ptr, ptr }
%"class.std::vector.16" = type { %"struct.std::_Vector_base.17" }
%"struct.std::_Vector_base.17" = type { %"struct.std::_Vector_base<Imf_3_2::(anonymous namespace)::LineBuffer *, std::allocator<Imf_3_2::(anonymous namespace)::LineBuffer *>>::_Vector_impl" }
%"struct.std::_Vector_base<Imf_3_2::(anonymous namespace)::LineBuffer *, std::allocator<Imf_3_2::(anonymous namespace)::LineBuffer *>>::_Vector_impl" = type { %"struct.std::_Vector_base<Imf_3_2::(anonymous namespace)::LineBuffer *, std::allocator<Imf_3_2::(anonymous namespace)::LineBuffer *>>::_Vector_impl_data" }
%"struct.std::_Vector_base<Imf_3_2::(anonymous namespace)::LineBuffer *, std::allocator<Imf_3_2::(anonymous namespace)::LineBuffer *>>::_Vector_impl_data" = type { ptr, ptr, ptr }
%"class.Imf_3_2::Array2D" = type { i64, i64, ptr }
%"class.Imf_3_2::Array" = type { i64, ptr }
%"class.Imf_3_2::Array.21" = type { i64, ptr }
%"class.Imf_3_2::Array.22" = type { i64, ptr }
%"class.Imf_3_2::DeepScanLineInputFile" = type { %"class.Imf_3_2::GenericInputFile", ptr }
%"class.Imf_3_2::GenericInputFile" = type { ptr }

; Function Attrs: mustprogress nounwind uwtable
define noundef i32 @_ZNK7Imf_3_221DeepScanLineInputFile20firstScanLineInChunkEi(ptr noundef nonnull align 8 dereferenceable(16) %this, i32 noundef %y) #5 align 2 {
entry:
  %this.addr = alloca ptr, align 8
  %y.addr = alloca i32, align 4
  store ptr %this, ptr %this.addr, align 8
  store i32 %y, ptr %y.addr, align 4
  %this1 = load ptr, ptr %this.addr, align 8
  %0 = load i32, ptr %y.addr, align 4
  %_data = getelementptr inbounds %"class.Imf_3_2::DeepScanLineInputFile", ptr %this1, i32 0, i32 1
  %1 = load ptr, ptr %_data, align 8
  %minY = getelementptr inbounds %"struct.Imf_3_2::DeepScanLineInputFile::Data", ptr %1, i32 0, i32 8
  %2 = load i32, ptr %minY, align 4
  %sub = sub nsw i32 %0, %2
  %_data2 = getelementptr inbounds %"class.Imf_3_2::DeepScanLineInputFile", ptr %this1, i32 0, i32 1
  %3 = load ptr, ptr %_data2, align 8
  %linesInBuffer = getelementptr inbounds %"struct.Imf_3_2::DeepScanLineInputFile::Data", ptr %3, i32 0, i32 19
  %4 = load i32, ptr %linesInBuffer, align 8
  %div = sdiv i32 %sub, %4
  %_data3 = getelementptr inbounds %"class.Imf_3_2::DeepScanLineInputFile", ptr %this1, i32 0, i32 1
  %5 = load ptr, ptr %_data3, align 8
  %linesInBuffer4 = getelementptr inbounds %"struct.Imf_3_2::DeepScanLineInputFile::Data", ptr %5, i32 0, i32 19
  %6 = load i32, ptr %linesInBuffer4, align 8
  %mul = mul nsw i32 %div, %6
  %_data5 = getelementptr inbounds %"class.Imf_3_2::DeepScanLineInputFile", ptr %this1, i32 0, i32 1
  %7 = load ptr, ptr %_data5, align 8
  %minY6 = getelementptr inbounds %"struct.Imf_3_2::DeepScanLineInputFile::Data", ptr %7, i32 0, i32 8
  %8 = load i32, ptr %minY6, align 4
  %add = add nsw i32 %mul, %8
  ret i32 %add
}