; Function Attrs: mustprogress nofree norecurse nosync nounwind willreturn memory(read, inaccessiblemem: none) uwtable
define noundef i32 @_ZNK7Imf_3_221DeepScanLineInputFile20firstScanLineInChunkEi(ptr nocapture noundef nonnull readonly align 8 dereferenceable(16) %this, i32 noundef %y) local_unnamed_addr #11 align 2 {
entry:
  %_data = getelementptr inbounds i8, ptr %this, i64 8
  %0 = load ptr, ptr %_data, align 8
  %minY = getelementptr inbounds i8, ptr %0, i64 220
  %1 = load i32, ptr %minY, align 4
  %.fr = freeze i32 %1
  %sub = sub i32 %y, %.fr
  %linesInBuffer = getelementptr inbounds i8, ptr %0, i64 360
  %2 = load i32, ptr %linesInBuffer, align 8
  %3 = srem i32 %sub, %2
  %mul = sub i32 %.fr, %3
  %add = add i32 %mul, %sub
  ret i32 %add
}